; Function Attrs: nounwind uwtable
define ptr @l___private_Lean_Meta_FunInfo_0__Lean_Meta_collectDeps___boxed(ptr noundef %0, ptr noundef %1) local_unnamed_addr #1 {
  %3 = load ptr, ptr @l___private_Lean_Meta_FunInfo_0__Lean_Meta_collectDeps___closed__1, align 8, !tbaa !9
  %4 = tail call ptr @l___private_Lean_Meta_FunInfo_0__Lean_Meta_collectDeps_visit(ptr noundef %0, ptr noundef %1, ptr noundef %3)
  %5 = getelementptr i8, ptr %4, i64 8
  %.val.i = load i64, ptr %5, align 8, !tbaa !12
  %6 = shl i64 %.val.i, 1
  %.not.i8 = icmp eq i64 %6, 0
  br i1 %.not.i8, label %l___private_Lean_Meta_FunInfo_0__Lean_Meta_collectDeps.exit, label %lean_nat_le.exit.i

lean_nat_le.exit.i:                               ; preds = %2
  %7 = and i64 %.val.i, 9223372036854775807
  %8 = icmp eq i64 %7, 0
  %9 = add i64 %6, -1
  %10 = inttoptr i64 %9 to ptr
  %.1.i.i = select i1 %8, ptr inttoptr (i64 1 to ptr), ptr %10
  %11 = or disjoint i64 %6, 1
  %12 = inttoptr i64 %11 to ptr
  %13 = tail call ptr @l_Array_qsort_sort___at___private_Lean_Meta_FunInfo_0__Lean_Meta_collectDeps___spec__1(ptr noundef nonnull %12, ptr noundef nonnull %4, ptr noundef nonnull inttoptr (i64 1 to ptr), ptr noundef nonnull %.1.i.i, ptr nonnull poison, ptr nonnull poison)
  br label %l___private_Lean_Meta_FunInfo_0__Lean_Meta_collectDeps.exit

l___private_Lean_Meta_FunInfo_0__Lean_Meta_collectDeps.exit: ; preds = %2, %lean_nat_le.exit.i
  %.1.i = phi ptr [ %13, %lean_nat_le.exit.i ], [ %4, %2 ]
  %14 = ptrtoint ptr %1 to i64
  %15 = and i64 %14, 1
  %.not = icmp eq i64 %15, 0
  br i1 %.not, label %16, label %lean_dec.exit5

16:                                               ; preds = %l___private_Lean_Meta_FunInfo_0__Lean_Meta_collectDeps.exit
  %17 = load i32, ptr %1, align 4, !tbaa !4
  %18 = icmp sgt i32 %17, 1
  br i1 %18, label %19, label %21, !prof !11

19:                                               ; preds = %16
  %20 = add nsw i32 %17, -1
  store i32 %20, ptr %1, align 4, !tbaa !4
  br label %lean_dec.exit5

21:                                               ; preds = %16
  %.not.i = icmp eq i32 %17, 0
  br i1 %.not.i, label %lean_dec.exit5, label %22

22:                                               ; preds = %21
  tail call void @lean_dec_ref_cold(ptr noundef nonnull %1) #5
  br label %lean_dec.exit5

lean_dec.exit5:                                   ; preds = %22, %21, %19, %l___private_Lean_Meta_FunInfo_0__Lean_Meta_collectDeps.exit
  %23 = ptrtoint ptr %0 to i64
  %24 = and i64 %23, 1
  %.not9 = icmp eq i64 %24, 0
  br i1 %.not9, label %25, label %lean_dec.exit

25:                                               ; preds = %lean_dec.exit5
  %26 = load i32, ptr %0, align 4, !tbaa !4
  %27 = icmp sgt i32 %26, 1
  br i1 %27, label %28, label %30, !prof !11

28:                                               ; preds = %25
  %29 = add nsw i32 %26, -1
  store i32 %29, ptr %0, align 4, !tbaa !4
  br label %lean_dec.exit

30:                                               ; preds = %25
  %.not.i6 = icmp eq i32 %26, 0
  br i1 %.not.i6, label %lean_dec.exit, label %31

31:                                               ; preds = %30
  tail call void @lean_dec_ref_cold(ptr noundef nonnull %0) #5
  br label %lean_dec.exit

lean_dec.exit:                                    ; preds = %31, %30, %28, %lean_dec.exit5
  ret ptr %.1.i
}